(lp0
S'poi'
p1
aS'salary'
p2
aS'total_payments'
p3
aS'loan_advances'
p4
aS'bonus'
p5
aS'total_wealth'
p6
aS'shared_receipt_with_poi'
p7
aS'exercised_stock_options'
p8
aS'total_stock_value'
p9
aS'deferred_income'
p10
aS'restricted_stock'
p11
aS'long_term_incentive'
p12
a.